EXPORTS
	??0TCnvCategory@@QAE@XZ @ 1 NONAME ; public: __thiscall TCnvCategory::TCnvCategory(void)
	??1CCnvConverter@@UAE@XZ @ 2 NONAME ; public: virtual __thiscall CCnvConverter::~CCnvConverter(void)
	?AddNewCurrencyL@TCnvCategory@@QAEXHAAVTDesC16@@AAN@Z @ 3 NONAME ; public: void __thiscall TCnvCategory::AddNewCurrencyL(int,class TDesC16 &,double &)
	?BaseUnit@TCnvCategory@@QBEIXZ @ 4 NONAME ; public: unsigned int __thiscall TCnvCategory::BaseUnit(void)const 
	?Convert@TCnvCategory@@QBENIIABNI@Z @ 5 NONAME ; public: double __thiscall TCnvCategory::Convert(unsigned int,unsigned int,double const &,unsigned int)const 
	?CurrencyCategoryId@CCnvConverter@@QBEIXZ @ 6 NONAME ; public: unsigned int __thiscall CCnvConverter::CurrencyCategoryId(void)const 
	?CurrentValueIndex@TCnvCategory@@UBEHXZ @ 7 NONAME ; public: virtual int __thiscall TCnvCategory::CurrentValueIndex(void)const 
	?CurrentValueTextLC@TCnvCategory@@UAEPAVHBufC16@@XZ @ 8 NONAME ; public: virtual class HBufC16 * __thiscall TCnvCategory::CurrentValueTextLC(void)
	?DeleteCurrencyL@TCnvCategory@@QAEXH@Z @ 9 NONAME ; public: void __thiscall TCnvCategory::DeleteCurrencyL(int)
	?ExternalizeL@CCnvConverter@@QBEXAAVRWriteStream@@@Z @ 10 NONAME ; public: void __thiscall CCnvConverter::ExternalizeL(class RWriteStream &)const 
	?GetCategoryAccessor@CCnvConverter@@QAEXAAVTCnvCategory@@I@Z @ 11 NONAME ; public: void __thiscall CCnvConverter::GetCategoryAccessor(class TCnvCategory &,unsigned int)
	?GetCategorylistAccessor@CCnvConverter@@QAEXAAVTCnvCategory@@@Z @ 12 NONAME ; public: void __thiscall CCnvConverter::GetCategorylistAccessor(class TCnvCategory &)
	?GetDefaultUnits@TCnvCategory@@QBEXAAI0@Z @ 13 NONAME ; public: void __thiscall TCnvCategory::GetDefaultUnits(unsigned int &,unsigned int &)const 
	?InternalizeL@CCnvConverter@@QAEXAAVRReadStream@@@Z @ 14 NONAME ; public: void __thiscall CCnvConverter::InternalizeL(class RReadStream &)
	?MdcArray@TCnvCategory@@UBEPBVMDesC16Array@@XZ @ 15 NONAME ; public: virtual class MDesC16Array const * __thiscall TCnvCategory::MdcArray(void)const 
	?NewL@CCnvConverter@@SAPAV1@AAVTResourceReader@@@Z @ 16 NONAME ; public: static class CCnvConverter * __cdecl CCnvConverter::NewL(class TResourceReader &)
	?SetBaseUnit@TCnvCategory@@QAEXI@Z @ 17 NONAME ; public: void __thiscall TCnvCategory::SetBaseUnit(unsigned int)
	?SetCurrentValueIndex@TCnvCategory@@UAEXH@Z @ 18 NONAME ; public: virtual void __thiscall TCnvCategory::SetCurrentValueIndex(int)
	?SetDefaultUnits@TCnvCategory@@QAEXII@Z @ 19 NONAME ; public: void __thiscall TCnvCategory::SetDefaultUnits(unsigned int,unsigned int)
	?SetUnitFactor@TCnvCategory@@QAEXIABN@Z @ 20 NONAME ; public: void __thiscall TCnvCategory::SetUnitFactor(unsigned int,double const &)
	?SetUnitName@TCnvCategory@@QAEXIABVTDesC16@@@Z @ 21 NONAME ; public: void __thiscall TCnvCategory::SetUnitName(unsigned int,class TDesC16 const &)
	?UnitFactor@TCnvCategory@@QBENI@Z @ 22 NONAME ; public: double __thiscall TCnvCategory::UnitFactor(unsigned int)const 
	?UnitMinimum@TCnvCategory@@QBENI@Z @ 23 NONAME ; public: double __thiscall TCnvCategory::UnitMinimum(unsigned int)const 

